target datalayout = "e-m:e-p270:32:32-p271:32:32-p272:64:64-i64:64-i128:128-f80:128-n8:16:32:64-S128"
target triple = "x86_64-pc-linux-gnu"

@.str = private unnamed_addr constant [112 x i8] c"generated/home/dtcxzyw/WorkSpace/Projects/compilers/llvm-opt-benchmark/bench/hdf5/hdf5/src/H5VLnative_dataset.c\00", align 1
@H5E_DATASET_g = external global i64, align 8
@H5E_CANTDEC_g = external global i64, align 8
@__func__.H5VL__native_dataset_close = private unnamed_addr constant [27 x i8] c"H5VL__native_dataset_close\00", align 1
@.str.41 = private unnamed_addr constant [20 x i8] c"can't close dataset\00", align 1

; Function Attrs: nounwind uwtable
define i32 @H5VL__native_dataset_close(ptr noundef %0, i64 noundef %1, ptr noundef %2) #0 {
  %4 = alloca ptr, align 8
  %5 = alloca i64, align 8
  %6 = alloca ptr, align 8
  %7 = alloca i32, align 4
  %8 = alloca i8, align 1
  store ptr %0, ptr %4, align 8, !tbaa !3
  store i64 %1, ptr %5, align 8, !tbaa !11
  store ptr %2, ptr %6, align 8, !tbaa !3
  call void @llvm.lifetime.start.p0(i64 4, ptr %7) #6
  store i32 0, ptr %7, align 4, !tbaa !36
  call void @llvm.lifetime.start.p0(i64 1, ptr %8) #6
  store i8 0, ptr %8, align 1, !tbaa !15
  %9 = load ptr, ptr %4, align 8, !tbaa !3
  %10 = call i32 @H5D_close(ptr noundef %9)
  %11 = icmp slt i32 %10, 0
  br i1 %11, label %12, label %31

12:                                               ; preds = %3
  br label %13

13:                                               ; preds = %12
  br label %14

14:                                               ; preds = %13
  br label %15

15:                                               ; preds = %14
  %16 = load i64, ptr @H5E_DATASET_g, align 8, !tbaa !11
  %17 = load i64, ptr @H5E_CANTDEC_g, align 8, !tbaa !11
  %18 = call i32 (ptr, ptr, i32, i64, i64, ptr, ...) @H5E_printf_stack(ptr noundef @.str, ptr noundef @__func__.H5VL__native_dataset_close, i32 noundef 827, i64 noundef %16, i64 noundef %17, ptr noundef @.str.41)
  br label %19

19:                                               ; preds = %15
  br label %20

20:                                               ; preds = %19
  store i8 1, ptr %8, align 1, !tbaa !15
  %21 = load i8, ptr %8, align 1, !tbaa !15, !range !20, !noundef !21
  %22 = trunc i8 %21 to i1
  %23 = zext i1 %22 to i8
  store i8 %23, ptr %8, align 1, !tbaa !15
  br label %24

24:                                               ; preds = %20
  br label %25

25:                                               ; preds = %24
  br label %26

26:                                               ; preds = %25
  store i32 -1, ptr %7, align 4, !tbaa !36
  br label %32

27:                                               ; No predecessors!
  br label %28

28:                                               ; preds = %27
  br label %29

29:                                               ; preds = %28
  br label %30

30:                                               ; preds = %29
  br label %31

31:                                               ; preds = %30, %3
  br label %32

32:                                               ; preds = %31, %26
  %33 = load i32, ptr %7, align 4, !tbaa !36
  call void @llvm.lifetime.end.p0(i64 1, ptr %8) #6
  call void @llvm.lifetime.end.p0(i64 4, ptr %7) #6
  ret i32 %33
}